; ModuleID = '60/1378.c'
source_filename = "60/1378.c"
target datalayout = "e-m:e-p270:32:32-p271:32:32-p272:64:64-i64:64-f80:128-n8:16:32:64-S128"
target triple = "x86_64-pc-linux-gnu"

@.str = private unnamed_addr constant [3 x i8] c"%d\00", align 1
@.str.1 = private unnamed_addr constant [6 x i8] c"empty\00", align 1
@.str.2 = private unnamed_addr constant [7 x i8] c"%d %d\0A\00", align 1

; Function Attrs: noinline nounwind uwtable
define dso_local i32 @main() #0 {
  %1 = alloca i32, align 4
  %2 = alloca i32, align 4
  %3 = alloca i32, align 4
  %4 = alloca i32, align 4
  %5 = alloca i32, align 4
  %6 = alloca i32, align 4
  %7 = alloca i32, align 4
  store i32 0, i32* %1, align 4
  %8 = call i32 (i8*, ...) @__isoc99_scanf(i8* getelementptr inbounds ([3 x i8], [3 x i8]* @.str, i64 0, i64 0), i32* %2)
  %9 = load i32, i32* %2, align 4
  %10 = icmp slt i32 %9, 5
  br i1 %10, label %11, label %13

11:                                               ; preds = %0
  %12 = call i32 (i8*, ...) @printf(i8* getelementptr inbounds ([6 x i8], [6 x i8]* @.str.1, i64 0, i64 0))
  br label %13

13:                                               ; preds = %11, %0
  store i32 3, i32* %5, align 4
  br label %14

14:                                               ; preds = %78, %13
  %15 = load i32, i32* %5, align 4
  %16 = load i32, i32* %2, align 4
  %17 = sub nsw i32 %16, 2
  %18 = icmp sle i32 %15, %17
  br i1 %18, label %19, label %81

19:                                               ; preds = %14
  store i32 2, i32* %6, align 4
  br label %20

20:                                               ; preds = %34, %19
  %21 = load i32, i32* %6, align 4
  %22 = sitofp i32 %21 to double
  %23 = load i32, i32* %5, align 4
  %24 = sitofp i32 %23 to double
  %25 = call double @sqrt(double %24) #3
  %26 = fcmp ole double %22, %25
  br i1 %26, label %27, label %37

27:                                               ; preds = %20
  %28 = load i32, i32* %5, align 4
  %29 = load i32, i32* %6, align 4
  %30 = srem i32 %28, %29
  %31 = icmp eq i32 %30, 0
  br i1 %31, label %32, label %33

32:                                               ; preds = %27
  br label %37

33:                                               ; preds = %27
  br label %34

34:                                               ; preds = %33
  %35 = load i32, i32* %6, align 4
  %36 = add nsw i32 %35, 1
  store i32 %36, i32* %6, align 4
  br label %20

37:                                               ; preds = %32, %20
  %38 = load i32, i32* %6, align 4
  %39 = sitofp i32 %38 to double
  %40 = load i32, i32* %5, align 4
  %41 = sitofp i32 %40 to double
  %42 = call double @sqrt(double %41) #3
  %43 = fcmp ogt double %39, %42
  br i1 %43, label %44, label %77

44:                                               ; preds = %37
  %45 = load i32, i32* %5, align 4
  store i32 %45, i32* %3, align 4
  %46 = load i32, i32* %3, align 4
  %47 = add nsw i32 %46, 2
  store i32 %47, i32* %4, align 4
  store i32 2, i32* %7, align 4
  br label %48

48:                                               ; preds = %62, %44
  %49 = load i32, i32* %7, align 4
  %50 = sitofp i32 %49 to double
  %51 = load i32, i32* %4, align 4
  %52 = sitofp i32 %51 to double
  %53 = call double @sqrt(double %52) #3
  %54 = fcmp ole double %50, %53
  br i1 %54, label %55, label %65

55:                                               ; preds = %48
  %56 = load i32, i32* %4, align 4
  %57 = load i32, i32* %7, align 4
  %58 = srem i32 %56, %57
  %59 = icmp eq i32 %58, 0
  br i1 %59, label %60, label %61

60:                                               ; preds = %55
  br label %65

61:                                               ; preds = %55
  br label %62

62:                                               ; preds = %61
  %63 = load i32, i32* %7, align 4
  %64 = add nsw i32 %63, 1
  store i32 %64, i32* %7, align 4
  br label %48

65:                                               ; preds = %60, %48
  %66 = load i32, i32* %7, align 4
  %67 = sitofp i32 %66 to double
  %68 = load i32, i32* %4, align 4
  %69 = sitofp i32 %68 to double
  %70 = call double @sqrt(double %69) #3
  %71 = fcmp ogt double %67, %70
  br i1 %71, label %72, label %76

72:                                               ; preds = %65
  %73 = load i32, i32* %3, align 4
  %74 = load i32, i32* %4, align 4
  %75 = call i32 (i8*, ...) @printf(i8* getelementptr inbounds ([7 x i8], [7 x i8]* @.str.2, i64 0, i64 0), i32 %73, i32 %74)
  br label %76

76:                                               ; preds = %72, %65
  br label %77

77:                                               ; preds = %76, %37
  br label %78

78:                                               ; preds = %77
  %79 = load i32, i32* %5, align 4
  %80 = add nsw i32 %79, 1
  store i32 %80, i32* %5, align 4
  br label %14

81:                                               ; preds = %14
  ret i32 0
}

declare dso_local i32 @__isoc99_scanf(i8*, ...) #1

declare dso_local i32 @printf(i8*, ...) #1

; Function Attrs: nounwind
declare dso_local double @sqrt(double) #2


!llvm.module.flags = !{!0}
!llvm.ident = !{!1}

!0 = !{i32 1, !"wchar_size", i32 4}
!1 = !{!"clang version 10.0.0-4ubuntu1 "}
