; ModuleID = 'source-C-CXX/59/1378.c'
source_filename = "source-C-CXX/59/1378.c"
target datalayout = "e-m:e-p270:32:32-p271:32:32-p272:64:64-i64:64-f80:128-n8:16:32:64-S128"
target triple = "x86_64-pc-linux-gnu"

@.str = private unnamed_addr constant [3 x i8] c"%d\00", align 1
@.str.1 = private unnamed_addr constant [6 x i8] c"empty\00", align 1
@.str.2 = private unnamed_addr constant [7 x i8] c"%d %d\0A\00", align 1

; Function Attrs: nofree nounwind sspstrong uwtable
define dso_local i32 @main() local_unnamed_addr #0 {
  %1 = alloca i32, align 4
  %2 = bitcast i32* %1 to i8*
  call void @llvm.lifetime.start.p0i8(i64 4, i8* nonnull %2) #4
  %3 = call i32 (i8*, ...) @__isoc99_scanf(i8* getelementptr inbounds ([3 x i8], [3 x i8]* @.str, i64 0, i64 0), i32* nonnull %1)
  %4 = load i32, i32* %1, align 4, !tbaa !5
  %5 = icmp slt i32 %4, 5
  br i1 %5, label %6, label %10

6:                                                ; preds = %0
  %7 = call i32 (i8*, ...) @printf(i8* nonnull dereferenceable(1) getelementptr inbounds ([6 x i8], [6 x i8]* @.str.1, i64 0, i64 0))
  %8 = load i32, i32* %1, align 4, !tbaa !5
  %9 = icmp slt i32 %8, 5
  br i1 %9, label %60, label %10

10:                                               ; preds = %0, %6
  br label %11

11:                                               ; preds = %10, %55
  %12 = phi i32 [ %56, %55 ], [ 3, %10 ]
  %13 = sitofp i32 %12 to double
  %14 = call double @sqrt(double %13) #4
  %15 = fcmp ult double %14, 2.000000e+00
  %16 = and i32 %12, 1
  %17 = icmp eq i32 %16, 0
  %18 = select i1 %15, i1 true, i1 %17
  br i1 %18, label %28, label %19

19:                                               ; preds = %11, %24
  %20 = phi i32 [ %27, %24 ], [ 3, %11 ]
  %21 = sitofp i32 %20 to double
  %22 = call double @sqrt(double %13) #4
  %23 = fcmp ult double %22, %21
  br i1 %23, label %28, label %24, !llvm.loop !9

24:                                               ; preds = %19
  %25 = urem i32 %12, %20
  %26 = icmp eq i32 %25, 0
  %27 = add nuw nsw i32 %20, 1
  br i1 %26, label %28, label %19, !llvm.loop !9

28:                                               ; preds = %24, %19, %11
  %29 = phi double [ 2.000000e+00, %11 ], [ %21, %19 ], [ %21, %24 ]
  %30 = call double @sqrt(double %13) #4
  %31 = fcmp olt double %30, %29
  br i1 %31, label %32, label %55

32:                                               ; preds = %28
  %33 = add nuw nsw i32 %12, 2
  %34 = sitofp i32 %33 to double
  %35 = call double @sqrt(double %34) #4
  %36 = fcmp ult double %35, 2.000000e+00
  %37 = and i32 %12, 1
  %38 = icmp eq i32 %37, 0
  %39 = select i1 %36, i1 true, i1 %38
  br i1 %39, label %49, label %40

40:                                               ; preds = %32, %45
  %41 = phi i32 [ %48, %45 ], [ 3, %32 ]
  %42 = sitofp i32 %41 to double
  %43 = call double @sqrt(double %34) #4
  %44 = fcmp ult double %43, %42
  br i1 %44, label %49, label %45, !llvm.loop !11

45:                                               ; preds = %40
  %46 = urem i32 %33, %41
  %47 = icmp eq i32 %46, 0
  %48 = add nuw nsw i32 %41, 1
  br i1 %47, label %49, label %40, !llvm.loop !11

49:                                               ; preds = %45, %40, %32
  %50 = phi double [ 2.000000e+00, %32 ], [ %42, %40 ], [ %42, %45 ]
  %51 = call double @sqrt(double %34) #4
  %52 = fcmp olt double %51, %50
  br i1 %52, label %53, label %55

53:                                               ; preds = %49
  %54 = call i32 (i8*, ...) @printf(i8* nonnull dereferenceable(1) getelementptr inbounds ([7 x i8], [7 x i8]* @.str.2, i64 0, i64 0), i32 %12, i32 %33)
  br label %55

55:                                               ; preds = %28, %53, %49
  %56 = add nuw nsw i32 %12, 1
  %57 = load i32, i32* %1, align 4, !tbaa !5
  %58 = add nsw i32 %57, -2
  %59 = icmp slt i32 %12, %58
  br i1 %59, label %11, label %60, !llvm.loop !12

60:                                               ; preds = %55, %6
  call void @llvm.lifetime.end.p0i8(i64 4, i8* nonnull %2) #4
  ret i32 0
}

; Function Attrs: argmemonly mustprogress nofree nosync nounwind willreturn
declare void @llvm.lifetime.start.p0i8(i64 immarg, i8* nocapture) #1

; Function Attrs: nofree nounwind
declare noundef i32 @__isoc99_scanf(i8* nocapture noundef readonly, ...) local_unnamed_addr #2

; Function Attrs: nofree nounwind
declare noundef i32 @printf(i8* nocapture noundef readonly, ...) local_unnamed_addr #2

; Function Attrs: mustprogress nofree nounwind willreturn
declare double @sqrt(double) local_unnamed_addr #3

; Function Attrs: argmemonly mustprogress nofree nosync nounwind willreturn
declare void @llvm.lifetime.end.p0i8(i64 immarg, i8* nocapture) #1


!llvm.module.flags = !{!0, !1, !2, !3}
!llvm.ident = !{!4}

!0 = !{i32 1, !"wchar_size", i32 4}
!1 = !{i32 7, !"PIC Level", i32 2}
!2 = !{i32 7, !"PIE Level", i32 2}
!3 = !{i32 7, !"uwtable", i32 1}
!4 = !{!"clang version 13.0.0"}
!5 = !{!6, !6, i64 0}
!6 = !{!"int", !7, i64 0}
!7 = !{!"omnipotent char", !8, i64 0}
!8 = !{!"Simple C/C++ TBAA"}
!9 = distinct !{!9, !10}
!10 = !{!"llvm.loop.mustprogress"}
!11 = distinct !{!11, !10}
!12 = distinct !{!12, !10}
